; Function Attrs: mustprogress uwtable
define hidden void @_ZN4cvc58internal6theory11quantifiers9TermPoolsC2ERNS0_3EnvERNS2_16QuantifiersStateE(ptr noundef nonnull align 8 dereferenceable(120) %this, ptr noundef nonnull align 8 dereferenceable(576) %env, ptr noundef nonnull align 8 dereferenceable(248) %qs) unnamed_addr #5 align 2 personality ptr @__gxx_personality_v0 {
entry:
  tail call void @_ZN4cvc58internal6theory15QuantifiersUtilC2ERNS0_3EnvE(ptr noundef nonnull align 8 dereferenceable(16) %this, ptr noundef nonnull align 8 dereferenceable(576) %env)
  store ptr getelementptr inbounds ({ [9 x ptr] }, ptr @_ZTVN4cvc58internal6theory11quantifiers9TermPoolsE, i64 0, i32 0, i64 2), ptr %this, align 8
  %d_qs = getelementptr inbounds i8, ptr %this, i64 16
  store ptr %qs, ptr %d_qs, align 8
  %0 = getelementptr inbounds i8, ptr %this, i64 32
  store i32 0, ptr %0, align 8
  %_M_parent.i.i.i.i.i = getelementptr inbounds i8, ptr %this, i64 40
  store ptr null, ptr %_M_parent.i.i.i.i.i, align 8
  %_M_left.i.i.i.i.i = getelementptr inbounds i8, ptr %this, i64 48
  store ptr %0, ptr %_M_left.i.i.i.i.i, align 8
  %_M_right.i.i.i.i.i = getelementptr inbounds i8, ptr %this, i64 56
  store ptr %0, ptr %_M_right.i.i.i.i.i, align 8
  %_M_node_count.i.i.i.i.i = getelementptr inbounds i8, ptr %this, i64 64
  store i64 0, ptr %_M_node_count.i.i.i.i.i, align 8
  %1 = getelementptr inbounds i8, ptr %this, i64 80
  store i32 0, ptr %1, align 8
  %_M_parent.i.i.i.i.i1 = getelementptr inbounds i8, ptr %this, i64 88
  store ptr null, ptr %_M_parent.i.i.i.i.i1, align 8
  %_M_left.i.i.i.i.i2 = getelementptr inbounds i8, ptr %this, i64 96
  store ptr %1, ptr %_M_left.i.i.i.i.i2, align 8
  %_M_right.i.i.i.i.i3 = getelementptr inbounds i8, ptr %this, i64 104
  store ptr %1, ptr %_M_right.i.i.i.i.i3, align 8
  %_M_node_count.i.i.i.i.i4 = getelementptr inbounds i8, ptr %this, i64 112
  store i64 0, ptr %_M_node_count.i.i.i.i.i4, align 8
  ret void
}